target datalayout = "e-m:e-p270:32:32-p271:32:32-p272:64:64-i64:64-i128:128-f80:128-n8:16:32:64-S128"
target triple = "x86_64-pc-linux-gnu"

%"class.llvm::MCSubtargetInfo" = type { ptr, %"class.llvm::Triple", %"class.std::__cxx11::basic_string", %"class.std::__cxx11::basic_string", %"class.llvm::ArrayRef", %"class.llvm::ArrayRef.0", ptr, ptr, ptr, ptr, ptr, ptr, ptr, %"class.llvm::FeatureBitset", %"class.std::__cxx11::basic_string" }
%"class.llvm::Triple" = type { %"class.std::__cxx11::basic_string", i32, i32, i32, i32, i32, i32 }
%"class.llvm::ArrayRef" = type { ptr, i64 }
%"class.llvm::ArrayRef.0" = type { ptr, i64 }
%"class.llvm::FeatureBitset" = type { %"struct.std::array" }
%"struct.std::array" = type { [5 x i64] }
%"class.std::__cxx11::basic_string" = type { %"struct.std::__cxx11::basic_string<char>::_Alloc_hider", i64, %union.anon }
%"struct.std::__cxx11::basic_string<char>::_Alloc_hider" = type { ptr }
%union.anon = type { i64, [8 x i8] }

@.str.91 = private unnamed_addr constant [2 x i8] zeroinitializer, align 1
@.str.92 = private unnamed_addr constant [3 x i8] c"\01\00\00", align 1
@.str.93 = private unnamed_addr constant [3 x i8] zeroinitializer, align 1
@.str.94 = private unnamed_addr constant [5 x i8] c"\13\00\00\00\00", align 1

; Function Attrs: mustprogress nounwind uwtable
define linkonce_odr hidden noundef nonnull align 8 dereferenceable(8) ptr @_ZNSt14__array_traitsImLm5EE6_S_refERA5_Kmm(ptr noundef nonnull align 8 dereferenceable(40) %0, i64 noundef %1) #1 comdat align 2 {
  %3 = alloca ptr, align 8
  %4 = alloca i64, align 8
  store ptr %0, ptr %3, align 8
  store i64 %1, ptr %4, align 8
  %5 = load ptr, ptr %3, align 8
  %6 = load i64, ptr %4, align 8
  %7 = getelementptr inbounds [5 x i64], ptr %5, i64 0, i64 %6
  ret ptr %7
}

; Function Attrs: mustprogress nounwind uwtable
define linkonce_odr hidden noundef nonnull align 8 dereferenceable(8) ptr @_ZNKSt5arrayImLm5EEixEm(ptr noundef nonnull align 8 dereferenceable(40) %0, i64 noundef %1) #1 comdat align 2 {
  %3 = alloca ptr, align 8
  %4 = alloca i64, align 8
  store ptr %0, ptr %3, align 8
  store i64 %1, ptr %4, align 8
  %5 = load ptr, ptr %3, align 8
  %6 = getelementptr inbounds nuw %"struct.std::array", ptr %5, i32 0, i32 0
  %7 = load i64, ptr %4, align 8
  %8 = call noundef nonnull align 8 dereferenceable(8) ptr @_ZNSt14__array_traitsImLm5EE6_S_refERA5_Kmm(ptr noundef nonnull align 8 dereferenceable(40) %6, i64 noundef %7) #2
  ret ptr %8
}

; Function Attrs: mustprogress nounwind uwtable
define linkonce_odr hidden noundef zeroext i1 @_ZNK4llvm13FeatureBitsetixEj(ptr noundef nonnull align 8 dereferenceable(40) %0, i32 noundef %1) #1 comdat align 2 {
  %3 = alloca ptr, align 8
  %4 = alloca i32, align 4
  %5 = alloca i64, align 8
  store ptr %0, ptr %3, align 8
  store i32 %1, ptr %4, align 4
  %6 = load ptr, ptr %3, align 8
  %7 = load i32, ptr %4, align 4
  %8 = urem i32 %7, 64
  %9 = zext i32 %8 to i64
  %10 = shl i64 1, %9
  store i64 %10, ptr %5, align 8
  %11 = getelementptr inbounds nuw %"class.llvm::FeatureBitset", ptr %6, i32 0, i32 0
  %12 = load i32, ptr %4, align 4
  %13 = udiv i32 %12, 64
  %14 = zext i32 %13 to i64
  %15 = call noundef nonnull align 8 dereferenceable(8) ptr @_ZNKSt5arrayImLm5EEixEm(ptr noundef nonnull align 8 dereferenceable(40) %11, i64 noundef %14) #2
  %16 = load i64, ptr %15, align 8
  %17 = load i64, ptr %5, align 8
  %18 = and i64 %16, %17
  %19 = icmp ne i64 %18, 0
  ret i1 %19
}

; Function Attrs: mustprogress nounwind uwtable
define linkonce_odr hidden noundef zeroext i1 @_ZNK4llvm15MCSubtargetInfo10hasFeatureEj(ptr noundef nonnull align 8 dereferenceable(288) %0, i32 noundef %1) #1 comdat align 2 {
  %3 = alloca ptr, align 8
  %4 = alloca i32, align 4
  store ptr %0, ptr %3, align 8
  store i32 %1, ptr %4, align 4
  %5 = load ptr, ptr %3, align 8
  %6 = getelementptr inbounds nuw %"class.llvm::MCSubtargetInfo", ptr %5, i32 0, i32 13
  %7 = load i32, ptr %4, align 4
  %8 = call noundef zeroext i1 @_ZNK4llvm13FeatureBitsetixEj(ptr noundef nonnull align 8 dereferenceable(40) %6, i32 noundef %7)
  ret i1 %8
}

; Function Attrs: mustprogress nounwind uwtable
define dso_local noundef zeroext i1 @_ZNK4llvm15RISCVAsmBackend12writeNopDataERNS_11raw_ostreamEmPKNS_15MCSubtargetInfoE(ptr noundef nonnull align 8 dereferenceable(40) %0, ptr noundef nonnull align 8 dereferenceable(48) %1, i64 noundef %2, ptr noundef %3) unnamed_addr #1 align 2 {
  %5 = alloca ptr, align 8
  %6 = alloca ptr, align 8
  %7 = alloca i64, align 8
  %8 = alloca ptr, align 8
  %9 = alloca i8, align 1
  store ptr %0, ptr %5, align 8
  store ptr %1, ptr %6, align 8
  store i64 %2, ptr %7, align 8
  store ptr %3, ptr %8, align 8
  %10 = load i64, ptr %7, align 8
  %11 = urem i64 %10, 2
  %12 = icmp ne i64 %11, 0
  br i1 %12, label %13, label %18

13:                                               ; preds = %4
  %14 = load ptr, ptr %6, align 8
  %15 = call noundef nonnull align 8 dereferenceable(48) ptr @_ZN4llvm11raw_ostream5writeEPKcm(ptr noundef nonnull align 8 dereferenceable(48) %14, ptr noundef @.str.91, i64 noundef 1)
  %16 = load i64, ptr %7, align 8
  %17 = sub i64 %16, 1
  store i64 %17, ptr %7, align 8
  br label %18

18:                                               ; preds = %13, %4
  %19 = load ptr, ptr %8, align 8
  %20 = call noundef zeroext i1 @_ZNK4llvm15MCSubtargetInfo10hasFeatureEj(ptr noundef nonnull align 8 dereferenceable(288) %19, i32 noundef 44)
  br i1 %20, label %24, label %21

21:                                               ; preds = %18
  %22 = load ptr, ptr %8, align 8
  %23 = call noundef zeroext i1 @_ZNK4llvm15MCSubtargetInfo10hasFeatureEj(ptr noundef nonnull align 8 dereferenceable(288) %22, i32 noundef 105)
  br label %24

24:                                               ; preds = %21, %18
  %25 = phi i1 [ true, %18 ], [ %23, %21 ]
  %26 = zext i1 %25 to i8
  store i8 %26, ptr %9, align 1
  %27 = load i64, ptr %7, align 8
  %28 = urem i64 %27, 4
  %29 = icmp eq i64 %28, 2
  br i1 %29, label %30, label %42

30:                                               ; preds = %24
  %31 = load ptr, ptr %6, align 8
  %32 = load i8, ptr %9, align 1
  %33 = trunc i8 %32 to i1
  br i1 %33, label %34, label %35

34:                                               ; preds = %30
  br label %36

35:                                               ; preds = %30
  br label %36

36:                                               ; preds = %35, %34
  %37 = phi ptr [ @.str.92, %34 ], [ @.str.93, %35 ]
  %38 = getelementptr inbounds [3 x i8], ptr %37, i64 0, i64 0
  %39 = call noundef nonnull align 8 dereferenceable(48) ptr @_ZN4llvm11raw_ostream5writeEPKcm(ptr noundef nonnull align 8 dereferenceable(48) %31, ptr noundef %38, i64 noundef 2)
  %40 = load i64, ptr %7, align 8
  %41 = sub i64 %40, 2
  store i64 %41, ptr %7, align 8
  br label %42

42:                                               ; preds = %36, %24
  br label %43

43:                                               ; preds = %49, %42
  %44 = load i64, ptr %7, align 8
  %45 = icmp uge i64 %44, 4
  br i1 %45, label %46, label %52

46:                                               ; preds = %43
  %47 = load ptr, ptr %6, align 8
  %48 = call noundef nonnull align 8 dereferenceable(48) ptr @_ZN4llvm11raw_ostream5writeEPKcm(ptr noundef nonnull align 8 dereferenceable(48) %47, ptr noundef @.str.94, i64 noundef 4)
  br label %49

49:                                               ; preds = %46
  %50 = load i64, ptr %7, align 8
  %51 = sub i64 %50, 4
  store i64 %51, ptr %7, align 8
  br label %43, !llvm.loop !9

52:                                               ; preds = %43
  ret i1 true
}