; Function Attrs: mustprogress nounwind uwtable
define dso_local noundef zeroext i1 @_ZNK4llvm15RISCVAsmBackend12writeNopDataERNS_11raw_ostreamEmPKNS_15MCSubtargetInfoE(ptr nocapture nonnull readnone align 8 %0, ptr noundef nonnull align 8 dereferenceable(48) %1, i64 noundef %2, ptr nocapture noundef readonly %3) unnamed_addr #0 align 2 {
  %5 = and i64 %2, 1
  %.not = icmp eq i64 %5, 0
  br i1 %.not, label %9, label %6

6:                                                ; preds = %4
  %7 = tail call noundef nonnull align 8 dereferenceable(48) ptr @_ZN4llvm11raw_ostream5writeEPKcm(ptr noundef nonnull align 8 dereferenceable(48) %1, ptr noundef nonnull @.str.91, i64 noundef 1) #18
  %8 = add nsw i64 %2, -1
  br label %9

9:                                                ; preds = %6, %4
  %.0 = phi i64 [ %8, %6 ], [ %2, %4 ]
  %10 = getelementptr inbounds nuw i8, ptr %3, i64 216
  %11 = load i64, ptr %10, align 8
  %12 = and i64 %11, 17592186044416
  %.not11 = icmp eq i64 %12, 0
  br i1 %.not11, label %13, label %18

13:                                               ; preds = %9
  %14 = getelementptr inbounds i8, ptr %3, i64 224
  %15 = load i64, ptr %14, align 8
  %16 = and i64 %15, 2199023255552
  %.not12 = icmp eq i64 %16, 0
  %17 = select i1 %.not12, ptr @.str.93, ptr @.str.92
  br label %18

18:                                               ; preds = %13, %9
  %.str.92..str.93 = phi ptr [ @.str.92, %9 ], [ %17, %13 ]
  %19 = and i64 %.0, 3
  %20 = icmp eq i64 %19, 2
  br i1 %20, label %21, label %24

21:                                               ; preds = %18
  %22 = tail call noundef nonnull align 8 dereferenceable(48) ptr @_ZN4llvm11raw_ostream5writeEPKcm(ptr noundef nonnull align 8 dereferenceable(48) %1, ptr noundef nonnull %.str.92..str.93, i64 noundef 2) #18
  %23 = add nsw i64 %.0, -2
  br label %24

24:                                               ; preds = %21, %18
  %.1 = phi i64 [ %23, %21 ], [ %.0, %18 ]
  %25 = icmp ugt i64 %.1, 3
  br i1 %25, label %.lr.ph, label %._crit_edge

.lr.ph:                                           ; preds = %24, %.lr.ph
  %.213 = phi i64 [ %27, %.lr.ph ], [ %.1, %24 ]
  %26 = tail call noundef nonnull align 8 dereferenceable(48) ptr @_ZN4llvm11raw_ostream5writeEPKcm(ptr noundef nonnull align 8 dereferenceable(48) %1, ptr noundef nonnull @.str.94, i64 noundef 4) #18
  %27 = add i64 %.213, -4
  %28 = icmp ugt i64 %27, 3
  br i1 %28, label %.lr.ph, label %._crit_edge, !llvm.loop !41

._crit_edge:                                      ; preds = %.lr.ph, %24
  ret i1 true
}